; Function Attrs: nounwind uwtable
define noalias nonnull ptr @l_Lean_RBMap_min___boxed(ptr noundef readnone captures(none) %0, ptr noundef readnone captures(none) %1, ptr noundef %2) local_unnamed_addr #1 {
  tail call void @lean_inc_heartbeat() #9
  %4 = tail call noalias ptr @mi_malloc_small(i64 noundef 24) #9
  %5 = icmp eq ptr %4, null
  br i1 %5, label %6, label %l_Lean_RBMap_min.exit

6:                                                ; preds = %3
  tail call void @lean_internal_panic_out_of_memory() #10
  unreachable

l_Lean_RBMap_min.exit:                            ; preds = %3
  %7 = getelementptr inbounds nuw i8, ptr %4, i64 4
  store i32 1, ptr %4, align 4, !tbaa !4
  store i32 -184549352, ptr %7, align 4
  %8 = getelementptr inbounds nuw i8, ptr %4, i64 8
  store ptr @l_Lean_RBMap_min___rarg___boxed, ptr %8, align 8, !tbaa !10
  %9 = getelementptr inbounds nuw i8, ptr %4, i64 16
  store i16 1, ptr %9, align 8, !tbaa !12
  %10 = getelementptr inbounds nuw i8, ptr %4, i64 18
  store i16 0, ptr %10, align 2, !tbaa !12
  %11 = ptrtoint ptr %2 to i64
  %12 = and i64 %11, 1
  %.not = icmp eq i64 %12, 0
  br i1 %.not, label %13, label %lean_dec.exit

13:                                               ; preds = %l_Lean_RBMap_min.exit
  %14 = load i32, ptr %2, align 4, !tbaa !4
  %15 = icmp sgt i32 %14, 1
  br i1 %15, label %16, label %18, !prof !9

16:                                               ; preds = %13
  %17 = add nsw i32 %14, -1
  store i32 %17, ptr %2, align 4, !tbaa !4
  br label %lean_dec.exit

18:                                               ; preds = %13
  %.not.i = icmp eq i32 %14, 0
  br i1 %.not.i, label %lean_dec.exit, label %19

19:                                               ; preds = %18
  tail call void @lean_dec_ref_cold(ptr noundef nonnull %2) #9
  br label %lean_dec.exit

lean_dec.exit:                                    ; preds = %19, %18, %16, %l_Lean_RBMap_min.exit
  ret ptr %4
}